target datalayout = "e-m:e-p270:32:32-p271:32:32-p272:64:64-i64:64-i128:128-f80:128-n8:16:32:64-S128"
target triple = "x86_64-pc-linux-gnu"

%struct.cli_htu32 = type { ptr, i64, i64, i64 }
%struct.cli_htu32_element = type { i32, %union.anon }
%union.anon = type { i64 }

; Function Attrs: nounwind uwtable
define ptr @cli_htu32_next(ptr noundef %0, ptr noundef %1) #0 {
  %3 = alloca ptr, align 8
  %4 = alloca ptr, align 8
  %5 = alloca ptr, align 8
  %6 = alloca i64, align 8
  %7 = alloca ptr, align 8
  store ptr %0, ptr %4, align 8
  store ptr %1, ptr %5, align 8
  %8 = load ptr, ptr %4, align 8
  %9 = icmp ne ptr %8, null
  br i1 %9, label %10, label %15

10:                                               ; preds = %2
  %11 = load ptr, ptr %4, align 8
  %12 = getelementptr inbounds %struct.cli_htu32, ptr %11, i32 0, i32 1
  %13 = load i64, ptr %12, align 8
  %14 = icmp ne i64 %13, 0
  br i1 %14, label %16, label %15

15:                                               ; preds = %10, %2
  store ptr null, ptr %3, align 8
  br label %72

16:                                               ; preds = %10
  %17 = load ptr, ptr %5, align 8
  %18 = icmp ne ptr %17, null
  br i1 %18, label %20, label %19

19:                                               ; preds = %16
  store i64 0, ptr %6, align 8
  br label %38

20:                                               ; preds = %16
  %21 = load ptr, ptr %5, align 8
  %22 = load ptr, ptr %4, align 8
  %23 = getelementptr inbounds %struct.cli_htu32, ptr %22, i32 0, i32 0
  %24 = load ptr, ptr %23, align 8
  %25 = ptrtoint ptr %21 to i64
  %26 = ptrtoint ptr %24 to i64
  %27 = sub i64 %25, %26
  %28 = sdiv exact i64 %27, 16
  store i64 %28, ptr %6, align 8
  %29 = load i64, ptr %6, align 8
  %30 = load ptr, ptr %4, align 8
  %31 = getelementptr inbounds %struct.cli_htu32, ptr %30, i32 0, i32 1
  %32 = load i64, ptr %31, align 8
  %33 = icmp uge i64 %29, %32
  br i1 %33, label %34, label %35

34:                                               ; preds = %20
  store ptr null, ptr %3, align 8
  br label %72

35:                                               ; preds = %20
  %36 = load i64, ptr %6, align 8
  %37 = add i64 %36, 1
  store i64 %37, ptr %6, align 8
  br label %38

38:                                               ; preds = %35, %19
  br label %39

39:                                               ; preds = %68, %38
  %40 = load i64, ptr %6, align 8
  %41 = load ptr, ptr %4, align 8
  %42 = getelementptr inbounds %struct.cli_htu32, ptr %41, i32 0, i32 1
  %43 = load i64, ptr %42, align 8
  %44 = icmp ult i64 %40, %43
  br i1 %44, label %45, label %71

45:                                               ; preds = %39
  %46 = load ptr, ptr %4, align 8
  %47 = getelementptr inbounds %struct.cli_htu32, ptr %46, i32 0, i32 0
  %48 = load ptr, ptr %47, align 8
  %49 = load i64, ptr %6, align 8
  %50 = load ptr, ptr %4, align 8
  %51 = getelementptr inbounds %struct.cli_htu32, ptr %50, i32 0, i32 1
  %52 = load i64, ptr %51, align 8
  %53 = sub i64 %52, 1
  %54 = and i64 %49, %53
  %55 = getelementptr inbounds %struct.cli_htu32_element, ptr %48, i64 %54
  store ptr %55, ptr %7, align 8
  %56 = load ptr, ptr %7, align 8
  %57 = getelementptr inbounds %struct.cli_htu32_element, ptr %56, i32 0, i32 0
  %58 = load i32, ptr %57, align 8
  %59 = icmp ne i32 %58, 0
  br i1 %59, label %60, label %67

60:                                               ; preds = %45
  %61 = load ptr, ptr %7, align 8
  %62 = getelementptr inbounds %struct.cli_htu32_element, ptr %61, i32 0, i32 0
  %63 = load i32, ptr %62, align 8
  %64 = icmp ne i32 %63, -1
  br i1 %64, label %65, label %67

65:                                               ; preds = %60
  %66 = load ptr, ptr %7, align 8
  store ptr %66, ptr %3, align 8
  br label %72

67:                                               ; preds = %60, %45
  br label %68

68:                                               ; preds = %67
  %69 = load i64, ptr %6, align 8
  %70 = add i64 %69, 1
  store i64 %70, ptr %6, align 8
  br label %39

71:                                               ; preds = %39
  store ptr null, ptr %3, align 8
  br label %72

72:                                               ; preds = %71, %65, %34, %15
  %73 = load ptr, ptr %3, align 8
  ret ptr %73
}