; Function Attrs: nofree norecurse nosync nounwind memory(read, inaccessiblemem: none) uwtable
define noundef ptr @cli_htu32_next(ptr noundef readonly %0, ptr noundef %1) local_unnamed_addr #4 {
  %.not = icmp eq ptr %0, null
  br i1 %.not, label %.loopexit, label %3

3:                                                ; preds = %2
  %4 = getelementptr inbounds i8, ptr %0, i64 8
  %5 = load i64, ptr %4, align 8
  %.not24 = icmp eq i64 %5, 0
  br i1 %.not24, label %.loopexit, label %6

6:                                                ; preds = %3
  %.not25 = icmp eq ptr %1, null
  br i1 %.not25, label %15, label %7

7:                                                ; preds = %6
  %8 = load ptr, ptr %0, align 8
  %9 = ptrtoint ptr %1 to i64
  %10 = ptrtoint ptr %8 to i64
  %11 = sub i64 %9, %10
  %12 = ashr exact i64 %11, 4
  %.not26 = icmp ult i64 %12, %5
  br i1 %.not26, label %13, label %.loopexit

13:                                               ; preds = %7
  %14 = add nsw i64 %12, 1
  br label %15

15:                                               ; preds = %6, %13
  %.017 = phi i64 [ %14, %13 ], [ 0, %6 ]
  %16 = icmp ult i64 %.017, %5
  br i1 %16, label %.lr.ph, label %.loopexit

.lr.ph:                                           ; preds = %15
  %17 = load ptr, ptr %0, align 8
  %18 = add i64 %5, -1
  br label %19

19:                                               ; preds = %.lr.ph, %23
  %.129 = phi i64 [ %.017, %.lr.ph ], [ %24, %23 ]
  %20 = and i64 %.129, %18
  %21 = getelementptr inbounds %struct.cli_htu32_element, ptr %17, i64 %20
  %22 = load i32, ptr %21, align 8
  switch i32 %22, label %.loopexit [
    i32 0, label %23
    i32 -1, label %23
  ]

23:                                               ; preds = %19, %19
  %24 = add i64 %.129, 1
  %exitcond.not = icmp eq i64 %24, %5
  br i1 %exitcond.not, label %.loopexit, label %19

.loopexit:                                        ; preds = %19, %23, %15, %7, %2, %3
  %.0 = phi ptr [ null, %3 ], [ null, %2 ], [ null, %7 ], [ null, %15 ], [ %21, %19 ], [ null, %23 ]
  ret ptr %.0
}